; Function Attrs: mustprogress uwtable
define void @_ZN6icu_776number4impl6DecNum5setToEPKcR10UErrorCode(ptr noundef nonnull align 8 dereferenceable(92) initializes((64, 68)) %0, ptr noundef %1, ptr noundef nonnull writeonly align 4 captures(none) dereferenceable(4) %2) local_unnamed_addr #1 align 2 {
  %4 = tail call i64 @strlen(ptr noundef nonnull dereferenceable(1) %1) #17
  %5 = trunc i64 %4 to i32
  %6 = icmp sgt i32 %5, 34
  br i1 %6, label %7, label %._ZN6icu_7724MaybeStackHeaderAndArrayI9decNumbercLi34EE6resizeEii.exit.i_crit_edge

._ZN6icu_7724MaybeStackHeaderAndArrayI9decNumbercLi34EE6resizeEii.exit.i_crit_edge: ; preds = %3
  %.pre = load ptr, ptr %0, align 8, !tbaa !24
  br label %_ZN6icu_7724MaybeStackHeaderAndArrayI9decNumbercLi34EE6resizeEii.exit.i

7:                                                ; preds = %3
  %narrow.i.i = add nuw nsw i64 %4, 12
  %8 = and i64 %narrow.i.i, 4294967295
  %9 = tail call noalias ptr @uprv_malloc_77(i64 noundef %8) #15
  %.not.i.i = icmp eq ptr %9, null
  %.pre4 = load ptr, ptr %0, align 8, !tbaa !24
  br i1 %.not.i.i, label %_ZN6icu_7724MaybeStackHeaderAndArrayI9decNumbercLi34EE6resizeEii.exit.i, label %10

10:                                               ; preds = %7
  tail call void @llvm.memcpy.p0.p0.i64(ptr noundef nonnull align 4 dereferenceable(12) %9, ptr noundef nonnull align 4 dereferenceable(12) %.pre4, i64 12, i1 false)
  %11 = getelementptr inbounds nuw i8, ptr %0, i64 12
  %12 = load i8, ptr %11, align 4, !tbaa !28
  %.not.i.i.i = icmp eq i8 %12, 0
  br i1 %.not.i.i.i, label %_ZN6icu_7724MaybeStackHeaderAndArrayI9decNumbercLi34EE13releaseMemoryEv.exit.i.i, label %13

13:                                               ; preds = %10
  tail call void @uprv_free_77(ptr noundef nonnull %.pre4)
  br label %_ZN6icu_7724MaybeStackHeaderAndArrayI9decNumbercLi34EE13releaseMemoryEv.exit.i.i

_ZN6icu_7724MaybeStackHeaderAndArrayI9decNumbercLi34EE13releaseMemoryEv.exit.i.i: ; preds = %13, %10
  store ptr %9, ptr %0, align 8, !tbaa !24
  %14 = getelementptr inbounds nuw i8, ptr %0, i64 8
  store i32 %5, ptr %14, align 8, !tbaa !27
  store i8 1, ptr %11, align 4, !tbaa !28
  br label %_ZN6icu_7724MaybeStackHeaderAndArrayI9decNumbercLi34EE6resizeEii.exit.i

_ZN6icu_7724MaybeStackHeaderAndArrayI9decNumbercLi34EE6resizeEii.exit.i: ; preds = %._ZN6icu_7724MaybeStackHeaderAndArrayI9decNumbercLi34EE6resizeEii.exit.i_crit_edge, %_ZN6icu_7724MaybeStackHeaderAndArrayI9decNumbercLi34EE13releaseMemoryEv.exit.i.i, %7
  %15 = phi ptr [ %.pre4, %7 ], [ %9, %_ZN6icu_7724MaybeStackHeaderAndArrayI9decNumbercLi34EE13releaseMemoryEv.exit.i.i ], [ %.pre, %._ZN6icu_7724MaybeStackHeaderAndArrayI9decNumbercLi34EE6resizeEii.exit.i_crit_edge ]
  %.sink.i = phi i32 [ %5, %7 ], [ %5, %_ZN6icu_7724MaybeStackHeaderAndArrayI9decNumbercLi34EE13releaseMemoryEv.exit.i.i ], [ 34, %._ZN6icu_7724MaybeStackHeaderAndArrayI9decNumbercLi34EE6resizeEii.exit.i_crit_edge ]
  %16 = getelementptr inbounds nuw i8, ptr %0, i64 64
  store i32 %.sink.i, ptr %16, align 8, !tbaa !35
  %17 = tail call ptr @uprv_decNumberFromString_77(ptr noundef %15, ptr noundef nonnull %1, ptr noundef nonnull %16)
  %18 = getelementptr inbounds nuw i8, ptr %0, i64 84
  %19 = load i32, ptr %18, align 4, !tbaa !36
  %20 = and i32 %19, 1
  %.not.i = icmp eq i32 %20, 0
  br i1 %.not.i, label %21, label %.sink.split.i

21:                                               ; preds = %_ZN6icu_7724MaybeStackHeaderAndArrayI9decNumbercLi34EE6resizeEii.exit.i
  %.not6.i = icmp eq i32 %19, 0
  br i1 %.not6.i, label %_ZN6icu_776number4impl6DecNum6_setToEPKciR10UErrorCode.exit, label %.sink.split.i

.sink.split.i:                                    ; preds = %21, %_ZN6icu_7724MaybeStackHeaderAndArrayI9decNumbercLi34EE6resizeEii.exit.i
  %.sink8.i = phi i32 [ 65808, %_ZN6icu_7724MaybeStackHeaderAndArrayI9decNumbercLi34EE6resizeEii.exit.i ], [ 16, %21 ]
  store i32 %.sink8.i, ptr %2, align 4, !tbaa !13
  br label %_ZN6icu_776number4impl6DecNum6_setToEPKciR10UErrorCode.exit

_ZN6icu_776number4impl6DecNum6_setToEPKciR10UErrorCode.exit: ; preds = %21, %.sink.split.i
  ret void
}